target datalayout = "e-m:e-p270:32:32-p271:32:32-p272:64:64-i64:64-i128:128-f80:128-n8:16:32:64-S128"
target triple = "x86_64-unknown-linux-gnu"

%"class.QuantLib::Period" = type { i32, i32 }
%"class.boost::detail::shared_count" = type { ptr }
%"class.std::set.0" = type { %"class.std::_Rb_tree.1" }
%"class.std::_Rb_tree.1" = type { %"struct.std::_Rb_tree<QuantLib::Observer *, QuantLib::Observer *, std::_Identity<QuantLib::Observer *>, std::less<QuantLib::Observer *>>::_Rb_tree_impl" }
%"struct.std::_Rb_tree<QuantLib::Observer *, QuantLib::Observer *, std::_Identity<QuantLib::Observer *>, std::less<QuantLib::Observer *>>::_Rb_tree_impl" = type { [8 x i8], %"struct.std::_Rb_tree_header" }
%"struct.std::_Rb_tree_header" = type { %"struct.std::_Rb_tree_node_base", i64 }
%"struct.std::_Rb_tree_node_base" = type { i32, ptr, ptr, ptr }
%"class.QuantLib::Date" = type { i64 }
%"class.std::set" = type { %"class.std::_Rb_tree" }
%"class.std::_Rb_tree" = type { %"struct.std::_Rb_tree<boost::shared_ptr<QuantLib::Observable>, boost::shared_ptr<QuantLib::Observable>, std::_Identity<boost::shared_ptr<QuantLib::Observable>>, std::less<boost::shared_ptr<QuantLib::Observable>>>::_Rb_tree_impl" }
%"struct.std::_Rb_tree<boost::shared_ptr<QuantLib::Observable>, boost::shared_ptr<QuantLib::Observable>, std::_Identity<boost::shared_ptr<QuantLib::Observable>>, std::less<boost::shared_ptr<QuantLib::Observable>>>::_Rb_tree_impl" = type { [8 x i8], %"struct.std::_Rb_tree_header" }
%"class.QuantLib::Observable" = type { ptr, %"class.std::set.0" }
%"class.std::__cxx11::basic_string" = type { %"struct.std::__cxx11::basic_string<char>::_Alloc_hider", i64, %union.anon }
%"struct.std::__cxx11::basic_string<char>::_Alloc_hider" = type { ptr }
%union.anon = type { i64, [8 x i8] }
%"class.QuantLib::InflationIndex" = type { %"class.QuantLib::Index", %"class.QuantLib::Date", %"class.std::__cxx11::basic_string", %"class.QuantLib::Region", i8, i32, %"class.QuantLib::Period", %"class.QuantLib::Currency", %"class.std::__cxx11::basic_string" }
%"class.QuantLib::Index" = type { %"class.QuantLib::Observable", %"class.QuantLib::Observer" }
%"class.QuantLib::Observer" = type { ptr, %"class.std::set" }
%"class.QuantLib::Region" = type { %"class.boost::shared_ptr.18" }
%"class.boost::shared_ptr.18" = type { ptr, %"class.boost::detail::shared_count" }
%"class.QuantLib::Currency" = type { %"class.boost::shared_ptr.19" }
%"class.boost::shared_ptr.19" = type { ptr, %"class.boost::detail::shared_count" }
%"struct.std::pair" = type { %"class.QuantLib::Date", %"class.QuantLib::Date" }
%"class.boost::shared_ptr.20" = type { ptr, %"class.boost::detail::shared_count" }
%"class.QuantLib::YoYInflationIndex" = type { %"class.QuantLib::InflationIndex", i8, i8, %"class.boost::shared_ptr.20", %"class.QuantLib::Handle.41" }
%"class.QuantLib::Handle.41" = type { %"class.boost::shared_ptr.42" }
%"class.boost::shared_ptr.42" = type { ptr, %"class.boost::detail::shared_count" }
%"class.boost::shared_ptr.43" = type { ptr, %"class.boost::detail::shared_count" }

@.str.13 = private unnamed_addr constant [8 x i8] c"px != 0\00", align 1
@.str.14 = private unnamed_addr constant [102 x i8] c"generated/home/dtcxzyw/WorkSpace/SDK/vcpkg/installed/x64-linux/include/boost/smart_ptr/shared_ptr.hpp\00", align 1

; Function Attrs: mustprogress nounwind uwtable
define linkonce_odr void @_ZN8QuantLib6PeriodC2EiNS_8TimeUnitE(ptr noundef nonnull align 4 dereferenceable(8) %this, i32 noundef %n, i32 noundef %units) unnamed_addr #1 comdat align 2 {
entry:
  %this.addr = alloca ptr, align 8
  %n.addr = alloca i32, align 4
  %units.addr = alloca i32, align 4
  store ptr %this, ptr %this.addr, align 8, !tbaa !3
  store i32 %n, ptr %n.addr, align 4, !tbaa !54
  store i32 %units, ptr %units.addr, align 4, !tbaa !55
  %this1 = load ptr, ptr %this.addr, align 8
  %length_ = getelementptr inbounds nuw %"class.QuantLib::Period", ptr %this1, i32 0, i32 0
  %0 = load i32, ptr %n.addr, align 4, !tbaa !54
  store i32 %0, ptr %length_, align 4, !tbaa !56
  %units_ = getelementptr inbounds nuw %"class.QuantLib::Period", ptr %this1, i32 0, i32 1
  %1 = load i32, ptr %units.addr, align 4, !tbaa !55
  store i32 %1, ptr %units_, align 4, !tbaa !57
  ret void
}

; Function Attrs: inlinehint mustprogress uwtable
define linkonce_odr i64 @_ZN8QuantLibmlIiEENS_6PeriodET_NS_8TimeUnitE(i32 noundef %n, i32 noundef %units) #4 comdat {
entry:
  %retval = alloca %"class.QuantLib::Period", align 4
  %n.addr = alloca i32, align 4
  %units.addr = alloca i32, align 4
  store i32 %n, ptr %n.addr, align 4, !tbaa !54
  store i32 %units, ptr %units.addr, align 4, !tbaa !55
  %0 = load i32, ptr %n.addr, align 4, !tbaa !54
  %1 = load i32, ptr %units.addr, align 4, !tbaa !55
  call void @_ZN8QuantLib6PeriodC2EiNS_8TimeUnitE(ptr noundef nonnull align 4 dereferenceable(8) %retval, i32 noundef %0, i32 noundef %1)
  %2 = load i64, ptr %retval, align 4
  ret i64 %2
}

; Function Attrs: mustprogress uwtable
define linkonce_odr noundef ptr @_ZNK5boost10shared_ptrIN8QuantLib25YoYInflationTermStructureEEptEv(ptr noundef nonnull align 8 dereferenceable(16) %this) #2 comdat align 2 {
entry:
  %this.addr = alloca ptr, align 8
  store ptr %this, ptr %this.addr, align 8, !tbaa !3
  %this1 = load ptr, ptr %this.addr, align 8
  %px = getelementptr inbounds nuw %"class.boost::shared_ptr.43", ptr %this1, i32 0, i32 0
  %0 = load ptr, ptr %px, align 8, !tbaa !86
  %cmp = icmp ne ptr %0, null
  %lnot = xor i1 %cmp, true
  %lnot2 = xor i1 %lnot, true
  %conv = zext i1 %lnot2 to i64
  %expval = call i64 @llvm.expect.i64(i64 %conv, i64 1)
  %tobool = icmp ne i64 %expval, 0
  br i1 %tobool, label %cond.true, label %cond.false

cond.true:                                        ; preds = %entry
  br label %cond.end

cond.false:                                       ; preds = %entry
  call void @_ZN5boost16assertion_failedEPKcS1_S1_l(ptr noundef @.str.13, ptr noundef @__PRETTY_FUNCTION__._ZNK5boost10shared_ptrIN8QuantLib25YoYInflationTermStructureEEptEv, ptr noundef @.str.14, i64 noundef 784)
  br label %cond.end

cond.end:                                         ; preds = %cond.false, %cond.true
  %px3 = getelementptr inbounds nuw %"class.boost::shared_ptr.43", ptr %this1, i32 0, i32 0
  %1 = load ptr, ptr %px3, align 8, !tbaa !86
  ret ptr %1
}

; Function Attrs: inlinehint mustprogress nounwind uwtable
define linkonce_odr noundef zeroext i1 @_ZNK8QuantLib17YoYInflationIndex12interpolatedEv(ptr noundef nonnull align 8 dereferenceable(272) %this) #5 comdat align 2 {
entry:
  %this.addr = alloca ptr, align 8
  store ptr %this, ptr %this.addr, align 8, !tbaa !3
  %this1 = load ptr, ptr %this.addr, align 8
  %interpolated_ = getelementptr inbounds nuw %"class.QuantLib::YoYInflationIndex", ptr %this1, i32 0, i32 1
  %0 = load i8, ptr %interpolated_, align 8, !tbaa !81, !range !60, !noundef !61
  %loadedv = trunc i8 %0 to i1
  ret i1 %loadedv
}

; Function Attrs: mustprogress uwtable
define noundef double @_ZNK8QuantLib17YoYInflationIndex14forecastFixingERKNS_4DateE(ptr noundef nonnull align 8 dereferenceable(272) %this, ptr noundef nonnull align 8 dereferenceable(8) %fixingDate) #2 align 2 {
entry:
  %this.addr = alloca ptr, align 8
  %fixingDate.addr = alloca ptr, align 8
  %d = alloca %"class.QuantLib::Date", align 8
  %lim = alloca %"struct.std::pair", align 8
  %ref.tmp = alloca %"class.QuantLib::Period", align 4
  store ptr %this, ptr %this.addr, align 8, !tbaa !3
  store ptr %fixingDate, ptr %fixingDate.addr, align 8, !tbaa !3
  %this1 = load ptr, ptr %this.addr, align 8
  call void @llvm.lifetime.start.p0(i64 8, ptr %d) #10
  call void @_ZN8QuantLib4DateC1Ev(ptr noundef nonnull align 8 dereferenceable(8) %d)
  %call = call noundef zeroext i1 @_ZNK8QuantLib17YoYInflationIndex12interpolatedEv(ptr noundef nonnull align 8 dereferenceable(272) %this1)
  br i1 %call, label %if.then, label %if.else

if.then:                                          ; preds = %entry
  %0 = load ptr, ptr %fixingDate.addr, align 8, !tbaa !3
  call void @llvm.memcpy.p0.p0.i64(ptr align 8 %d, ptr align 8 %0, i64 8, i1 false), !tbaa.struct !66
  br label %if.end

if.else:                                          ; preds = %entry
  call void @llvm.lifetime.start.p0(i64 16, ptr %lim) #10
  %1 = load ptr, ptr %fixingDate.addr, align 8, !tbaa !3
  %frequency_ = getelementptr inbounds nuw %"class.QuantLib::InflationIndex", ptr %this1, i32 0, i32 5
  %2 = load i32, ptr %frequency_, align 4, !tbaa !25
  %call2 = call { i64, i64 } @_ZN8QuantLib15inflationPeriodERKNS_4DateENS_9FrequencyE(ptr noundef nonnull align 8 dereferenceable(8) %1, i32 noundef %2)
  %3 = getelementptr inbounds nuw { i64, i64 }, ptr %lim, i32 0, i32 0
  %4 = extractvalue { i64, i64 } %call2, 0
  store i64 %4, ptr %3, align 8
  %5 = getelementptr inbounds nuw { i64, i64 }, ptr %lim, i32 0, i32 1
  %6 = extractvalue { i64, i64 } %call2, 1
  store i64 %6, ptr %5, align 8
  %first = getelementptr inbounds nuw %"struct.std::pair", ptr %lim, i32 0, i32 0
  call void @llvm.memcpy.p0.p0.i64(ptr align 8 %d, ptr align 8 %first, i64 8, i1 false), !tbaa.struct !66
  call void @llvm.lifetime.end.p0(i64 16, ptr %lim) #10
  br label %if.end

if.end:                                           ; preds = %if.else, %if.then
  %yoyInflation_ = getelementptr inbounds nuw %"class.QuantLib::YoYInflationIndex", ptr %this1, i32 0, i32 4
  %call3 = call noundef nonnull align 8 dereferenceable(16) ptr @_ZNK8QuantLib6HandleINS_25YoYInflationTermStructureEEptEv(ptr noundef nonnull align 8 dereferenceable(16) %yoyInflation_)
  %call4 = call noundef ptr @_ZNK5boost10shared_ptrIN8QuantLib25YoYInflationTermStructureEEptEv(ptr noundef nonnull align 8 dereferenceable(16) %call3)
  call void @llvm.lifetime.start.p0(i64 8, ptr %ref.tmp) #10
  %call5 = call i64 @_ZN8QuantLibmlIiEENS_6PeriodET_NS_8TimeUnitE(i32 noundef 0, i32 noundef 0)
  store i64 %call5, ptr %ref.tmp, align 4
  %call6 = call noundef double @_ZNK8QuantLib25YoYInflationTermStructure7yoyRateERKNS_4DateERKNS_6PeriodEbb(ptr noundef nonnull align 8 dereferenceable(114) %call4, ptr noundef nonnull align 8 dereferenceable(8) %d, ptr noundef nonnull align 4 dereferenceable(8) %ref.tmp, i1 noundef zeroext false, i1 noundef zeroext false)
  call void @llvm.lifetime.end.p0(i64 8, ptr %ref.tmp) #10
  call void @llvm.lifetime.end.p0(i64 8, ptr %d) #10
  ret double %call6
}