; Function Attrs: mustprogress uwtable
define noundef double @_ZNK8QuantLib17YoYInflationIndex14forecastFixingERKNS_4DateE(ptr noundef nonnull align 8 dereferenceable(272) %this, ptr noundef nonnull align 8 dereferenceable(8) %fixingDate) local_unnamed_addr #6 align 2 {
entry:
  %d = alloca %"class.QuantLib::Date", align 8
  %ref.tmp = alloca %"class.QuantLib::Period", align 8
  call void @llvm.lifetime.start.p0(i64 8, ptr nonnull %d) #27
  call void @_ZN8QuantLib4DateC1Ev(ptr noundef nonnull align 8 dereferenceable(8) %d)
  %interpolated_.i = getelementptr inbounds nuw i8, ptr %this, i64 232
  %0 = load i8, ptr %interpolated_.i, align 8, !tbaa !136, !range !26, !noundef !27
  %loadedv.i = trunc nuw i8 %0 to i1
  br i1 %loadedv.i, label %if.then, label %if.else

if.then:                                          ; preds = %entry
  %1 = load i64, ptr %fixingDate, align 8, !tbaa !30
  br label %if.end

if.else:                                          ; preds = %entry
  %frequency_ = getelementptr inbounds nuw i8, ptr %this, i64 172
  %2 = load i32, ptr %frequency_, align 4, !tbaa !47
  %call2 = call { i64, i64 } @_ZN8QuantLib15inflationPeriodERKNS_4DateENS_9FrequencyE(ptr noundef nonnull align 8 dereferenceable(8) %fixingDate, i32 noundef %2)
  %3 = extractvalue { i64, i64 } %call2, 0
  br label %if.end

if.end:                                           ; preds = %if.else, %if.then
  %storemerge = phi i64 [ %1, %if.then ], [ %3, %if.else ]
  store i64 %storemerge, ptr %d, align 8, !tbaa !30
  %yoyInflation_ = getelementptr inbounds nuw i8, ptr %this, i64 256
  %call3 = call noundef nonnull align 8 dereferenceable(16) ptr @_ZNK8QuantLib6HandleINS_25YoYInflationTermStructureEEptEv(ptr noundef nonnull align 8 dereferenceable(16) %yoyInflation_)
  %4 = load ptr, ptr %call3, align 8, !tbaa !148
  %cmp.not.i = icmp eq ptr %4, null
  br i1 %cmp.not.i, label %cond.false.i, label %_ZNK5boost10shared_ptrIN8QuantLib25YoYInflationTermStructureEEptEv.exit, !prof !41

cond.false.i:                                     ; preds = %if.end
  call void @_ZN5boost16assertion_failedEPKcS1_S1_l(ptr noundef nonnull @.str.13, ptr noundef nonnull @__PRETTY_FUNCTION__._ZNK5boost10shared_ptrIN8QuantLib25YoYInflationTermStructureEEptEv, ptr noundef nonnull @.str.14, i64 noundef 784)
  %.pre.i = load ptr, ptr %call3, align 8, !tbaa !148
  br label %_ZNK5boost10shared_ptrIN8QuantLib25YoYInflationTermStructureEEptEv.exit

_ZNK5boost10shared_ptrIN8QuantLib25YoYInflationTermStructureEEptEv.exit: ; preds = %if.end, %cond.false.i
  %5 = phi ptr [ %4, %if.end ], [ %.pre.i, %cond.false.i ]
  call void @llvm.lifetime.start.p0(i64 8, ptr nonnull %ref.tmp) #27
  store i64 0, ptr %ref.tmp, align 8
  %call6 = call noundef double @_ZNK8QuantLib25YoYInflationTermStructure7yoyRateERKNS_4DateERKNS_6PeriodEbb(ptr noundef nonnull align 8 dereferenceable(114) %5, ptr noundef nonnull align 8 dereferenceable(8) %d, ptr noundef nonnull align 4 dereferenceable(8) %ref.tmp, i1 noundef zeroext false, i1 noundef zeroext false)
  call void @llvm.lifetime.end.p0(i64 8, ptr nonnull %ref.tmp) #27
  call void @llvm.lifetime.end.p0(i64 8, ptr nonnull %d) #27
  ret double %call6
}